target datalayout = "e-m:e-p270:32:32-p271:32:32-p272:64:64-i64:64-i128:128-f80:128-n8:16:32:64-S128"
target triple = "x86_64-pc-linux-gnu"

; Function Attrs: nounwind uwtable
define i32 @ToTraditionalInline_ex(ptr noundef %0, ptr noundef %1, i32 noundef %2, ptr noundef %3) #0 {
  %5 = alloca ptr, align 8
  %6 = alloca ptr, align 8
  %7 = alloca i32, align 4
  %8 = alloca ptr, align 8
  store ptr %0, ptr %5, align 8, !tbaa !7
  store ptr %1, ptr %6, align 8, !tbaa !18
  store i32 %2, ptr %7, align 4, !tbaa !3
  store ptr %3, ptr %8, align 8, !tbaa !18
  %9 = load ptr, ptr %5, align 8, !tbaa !7
  %10 = load ptr, ptr %6, align 8, !tbaa !18
  %11 = load i32, ptr %7, align 4, !tbaa !3
  %12 = load ptr, ptr %8, align 8, !tbaa !18
  %13 = call i32 @ToTraditionalInline_ex2(ptr noundef %9, ptr noundef %10, i32 noundef %11, ptr noundef %12, ptr noundef null)
  ret i32 %13
}

; Function Attrs: nounwind uwtable
define i32 @ToTraditional_ex(ptr noundef %0, i32 noundef %1, ptr noundef %2) #0 {
  %4 = alloca i32, align 4
  %5 = alloca ptr, align 8
  %6 = alloca i32, align 4
  %7 = alloca ptr, align 8
  %8 = alloca i32, align 4
  %9 = alloca i32, align 4
  %10 = alloca i32, align 4
  store ptr %0, ptr %5, align 8, !tbaa !7
  store i32 %1, ptr %6, align 4, !tbaa !3
  store ptr %2, ptr %7, align 8, !tbaa !18
  call void @llvm.lifetime.start.p0(i64 4, ptr %8) #9
  store i32 0, ptr %8, align 4, !tbaa !3
  call void @llvm.lifetime.start.p0(i64 4, ptr %9) #9
  %11 = load ptr, ptr %5, align 8, !tbaa !7
  %12 = icmp eq ptr %11, null
  br i1 %12, label %13, label %14

13:                                               ; preds = %3
  store i32 -173, ptr %4, align 4
  store i32 1, ptr %10, align 4
  br label %39

14:                                               ; preds = %3
  %15 = load ptr, ptr %5, align 8, !tbaa !7
  %16 = load i32, ptr %6, align 4, !tbaa !3
  %17 = load ptr, ptr %7, align 8, !tbaa !18
  %18 = call i32 @ToTraditionalInline_ex(ptr noundef %15, ptr noundef %8, i32 noundef %16, ptr noundef %17)
  store i32 %18, ptr %9, align 4, !tbaa !3
  %19 = load i32, ptr %9, align 4, !tbaa !3
  %20 = icmp slt i32 %19, 0
  br i1 %20, label %21, label %23

21:                                               ; preds = %14
  %22 = load i32, ptr %9, align 4, !tbaa !3
  store i32 %22, ptr %4, align 4
  store i32 1, ptr %10, align 4
  br label %39

23:                                               ; preds = %14
  %24 = load i32, ptr %9, align 4, !tbaa !3
  %25 = load i32, ptr %8, align 4, !tbaa !3
  %26 = add i32 %24, %25
  %27 = load i32, ptr %6, align 4, !tbaa !3
  %28 = icmp ugt i32 %26, %27
  br i1 %28, label %29, label %30

29:                                               ; preds = %23
  store i32 -132, ptr %4, align 4
  store i32 1, ptr %10, align 4
  br label %39

30:                                               ; preds = %23
  %31 = load ptr, ptr %5, align 8, !tbaa !7
  %32 = load ptr, ptr %5, align 8, !tbaa !7
  %33 = load i32, ptr %8, align 4, !tbaa !3
  %34 = zext i32 %33 to i64
  %35 = getelementptr inbounds nuw i8, ptr %32, i64 %34
  %36 = load i32, ptr %9, align 4, !tbaa !3
  %37 = sext i32 %36 to i64
  call void @llvm.memmove.p0.p0.i64(ptr align 1 %31, ptr align 1 %35, i64 %37, i1 false)
  %38 = load i32, ptr %9, align 4, !tbaa !3
  store i32 %38, ptr %4, align 4
  store i32 1, ptr %10, align 4
  br label %39

39:                                               ; preds = %30, %29, %21, %13
  call void @llvm.lifetime.end.p0(i64 4, ptr %9) #9
  call void @llvm.lifetime.end.p0(i64 4, ptr %8) #9
  %40 = load i32, ptr %4, align 4
  ret i32 %40
}

; Function Attrs: nounwind uwtable
define i32 @ToTraditional(ptr noundef %0, i32 noundef %1) #0 {
  %3 = alloca ptr, align 8
  %4 = alloca i32, align 4
  %5 = alloca i32, align 4
  store ptr %0, ptr %3, align 8, !tbaa !7
  store i32 %1, ptr %4, align 4, !tbaa !3
  call void @llvm.lifetime.start.p0(i64 4, ptr %5) #9
  %6 = load ptr, ptr %3, align 8, !tbaa !7
  %7 = load i32, ptr %4, align 4, !tbaa !3
  %8 = call i32 @ToTraditional_ex(ptr noundef %6, i32 noundef %7, ptr noundef %5)
  call void @llvm.lifetime.end.p0(i64 4, ptr %5) #9
  ret i32 %8
}