; Function Attrs: nounwind uwtable
define i32 @ToTraditional(ptr noundef %0, i32 noundef %1) local_unnamed_addr #2 {
  %3 = alloca i32, align 4
  %4 = alloca i32, align 4
  call void @llvm.lifetime.start.p0(i64 4, ptr nonnull %4) #22
  call void @llvm.lifetime.start.p0(i64 4, ptr nonnull %3) #22
  store i32 0, ptr %3, align 4, !tbaa !22
  %5 = icmp eq ptr %0, null
  br i1 %5, label %ToTraditional_ex.exit, label %6

6:                                                ; preds = %2
  %7 = call i32 @ToTraditionalInline_ex2(ptr noundef nonnull %0, ptr noundef nonnull %3, i32 noundef %1, ptr noundef nonnull %4, ptr noundef null)
  %8 = icmp slt i32 %7, 0
  br i1 %8, label %ToTraditional_ex.exit, label %9

9:                                                ; preds = %6
  %10 = load i32, ptr %3, align 4, !tbaa !22
  %11 = add i32 %10, %7
  %12 = icmp ugt i32 %11, %1
  br i1 %12, label %ToTraditional_ex.exit, label %13

13:                                               ; preds = %9
  %14 = zext i32 %10 to i64
  %15 = getelementptr inbounds nuw i8, ptr %0, i64 %14
  %16 = zext nneg i32 %7 to i64
  call void @llvm.memmove.p0.p0.i64(ptr nonnull align 1 %0, ptr nonnull align 1 %15, i64 %16, i1 false)
  br label %ToTraditional_ex.exit

ToTraditional_ex.exit:                            ; preds = %2, %6, %9, %13
  %.0.i = phi i32 [ %7, %13 ], [ -173, %2 ], [ %7, %6 ], [ -132, %9 ]
  call void @llvm.lifetime.end.p0(i64 4, ptr nonnull %3) #22
  call void @llvm.lifetime.end.p0(i64 4, ptr nonnull %4) #22
  ret i32 %.0.i
}